; Function Attrs: mustprogress uwtable
define void @_ZN13sentencepiece14ModelInterfaceC2ERKNS_10ModelProtoE(ptr noundef nonnull align 8 dereferenceable(152) %0, ptr noundef nonnull align 8 dereferenceable(104) %1) unnamed_addr #3 align 2 personality ptr @__gxx_personality_v0 {
  store ptr getelementptr inbounds inrange(-16, 200) (i8, ptr @_ZTVN13sentencepiece14ModelInterfaceE, i64 16), ptr %0, align 8
  %3 = getelementptr inbounds i8, ptr %0, i64 8
  store ptr %1, ptr %3, align 8
  %4 = getelementptr inbounds i8, ptr %0, i64 16
  store ptr null, ptr %4, align 8
  %5 = getelementptr inbounds i8, ptr %0, i64 24
  %6 = getelementptr inbounds i8, ptr %0, i64 72
  store ptr %6, ptr %5, align 8
  %7 = getelementptr inbounds i8, ptr %0, i64 32
  store i64 1, ptr %7, align 8
  %8 = getelementptr inbounds i8, ptr %0, i64 40
  %9 = getelementptr inbounds i8, ptr %0, i64 56
  tail call void @llvm.memset.p0.i64(ptr noundef nonnull align 8 dereferenceable(16) %8, i8 0, i64 16, i1 false)
  store float 1.000000e+00, ptr %9, align 8
  %10 = getelementptr inbounds i8, ptr %0, i64 64
  tail call void @llvm.memset.p0.i64(ptr noundef nonnull align 8 dereferenceable(16) %10, i8 0, i64 16, i1 false)
  %11 = getelementptr inbounds i8, ptr %0, i64 80
  %12 = getelementptr inbounds i8, ptr %0, i64 128
  store ptr %12, ptr %11, align 8
  %13 = getelementptr inbounds i8, ptr %0, i64 88
  store i64 1, ptr %13, align 8
  %14 = getelementptr inbounds i8, ptr %0, i64 96
  %15 = getelementptr inbounds i8, ptr %0, i64 112
  tail call void @llvm.memset.p0.i64(ptr noundef nonnull align 8 dereferenceable(16) %14, i8 0, i64 16, i1 false)
  store float 1.000000e+00, ptr %15, align 8
  %16 = getelementptr inbounds i8, ptr %0, i64 120
  %17 = getelementptr inbounds i8, ptr %0, i64 144
  tail call void @llvm.memset.p0.i64(ptr noundef nonnull align 8 dereferenceable(20) %16, i8 0, i64 20, i1 false)
  invoke void @_ZN13sentencepiece4util6StatusC1Ev(ptr noundef nonnull align 8 dereferenceable(8) %17)
          to label %_ZN13sentencepiece4util8OkStatusEv.exit unwind label %18

_ZN13sentencepiece4util8OkStatusEv.exit:          ; preds = %2
  ret void

18:                                               ; preds = %2
  %19 = landingpad { ptr, i32 }
          cleanup
  tail call void @_ZNSt13unordered_mapISt17basic_string_viewIcSt11char_traitsIcEEiSt4hashIS3_ESt8equal_toIS3_ESaISt4pairIKS3_iEEED2Ev(ptr noundef nonnull align 8 dereferenceable(56) %11) #21
  tail call void @_ZNSt13unordered_mapISt17basic_string_viewIcSt11char_traitsIcEEiSt4hashIS3_ESt8equal_toIS3_ESaISt4pairIKS3_iEEED2Ev(ptr noundef nonnull align 8 dereferenceable(56) %5) #21
  tail call void @_ZNSt10unique_ptrIN13sentencepiece10normalizer13PrefixMatcherESt14default_deleteIS2_EED2Ev(ptr noundef nonnull align 8 dereferenceable(8) %4) #21
  resume { ptr, i32 } %19
}